target datalayout = "e-m:e-p270:32:32-p271:32:32-p272:64:64-i64:64-i128:128-f80:128-n8:16:32:64-S128"
target triple = "x86_64-pc-linux-gnu"

%union.pthread_mutex_t = type { %struct.__pthread_mutex_s }
%struct.__pthread_mutex_s = type { i32, i32, i32, i32, i32, i16, i16, %struct.__pthread_internal_list }
%struct.__pthread_internal_list = type { ptr, ptr }
%struct.salloc_opt_t = type { i32, i32, i8, i16 }
%struct.resource_allocation_response_msg = type { ptr, i32, ptr, i32, i32, i32, ptr, ptr, i32, ptr, i32, i32, ptr, ptr, i32, ptr, i16, i16, i16, i16, i32, ptr, i64, ptr, ptr, ptr, ptr, i32, ptr, ptr }
%struct.slurmdb_cluster_rec = type { ptr, i16, i64, %struct.sockaddr_storage, ptr, i32, i16, ptr, i16, %struct.slurmdb_cluster_fed_t, i32, %union.pthread_mutex_t, ptr, ptr, ptr, i16, ptr, ptr }
%struct.sockaddr_storage = type { i16, [118 x i8], i64 }
%struct.slurmdb_cluster_fed_t = type { ptr, i32, ptr, ptr, ptr, i32, i8, i8 }

@.str.5 = private unnamed_addr constant [2 x i8] c":\00", align 1
@saopt = external global %struct.salloc_opt_t, align 4
@working_cluster_rec = external global ptr, align 8
@allocation_interrupted = internal global i8 0, align 1
@_proc_alloc.elem = internal global i32 0, align 4
@.str.35 = private unnamed_addr constant [22 x i8] c"SLURM_WORKING_CLUSTER\00", align 1
@.str.36 = private unnamed_addr constant [14 x i8] c"%s:[%s]:%d:%d\00", align 1
@.str.37 = private unnamed_addr constant [12 x i8] c"%s:%s:%d:%d\00", align 1
@.str.38 = private unnamed_addr constant [47 x i8] c"Something is wrong with the boot of the nodes.\00", align 1
@.str.39 = private unnamed_addr constant [35 x i8] c"Waiting for resource configuration\00", align 1
@.str.40 = private unnamed_addr constant [55 x i8] c"Waited %f sec and still waiting: next sleep for %f sec\00", align 1
@allocation_revoked = internal global i8 0, align 1
@.str.41 = private unnamed_addr constant [27 x i8] c"Nodes %s are ready for job\00", align 1
@.str.42 = private unnamed_addr constant [35 x i8] c"Job allocation %u has been revoked\00", align 1
@.str.43 = private unnamed_addr constant [29 x i8] c"Nodes %s are still not ready\00", align 1

; Function Attrs: nounwind uwtable
define internal i32 @_wait_nodes_ready(ptr noundef %0) #0 {
  %2 = alloca ptr, align 8
  %3 = alloca double, align 8
  %4 = alloca double, align 8
  %5 = alloca i32, align 4
  %6 = alloca i32, align 4
  %7 = alloca i32, align 4
  %8 = alloca i8, align 1
  store ptr %0, ptr %2, align 8
  call void @llvm.lifetime.start.p0(i64 8, ptr %3) #9
  store double 0.000000e+00, ptr %3, align 8
  call void @llvm.lifetime.start.p0(i64 8, ptr %4) #9
  store double 0.000000e+00, ptr %4, align 8
  call void @llvm.lifetime.start.p0(i64 4, ptr %5) #9
  store i32 0, ptr %5, align 4
  call void @llvm.lifetime.start.p0(i64 4, ptr %6) #9
  store i32 0, ptr %6, align 4
  call void @llvm.lifetime.start.p0(i64 4, ptr %7) #9
  call void @llvm.lifetime.start.p0(i64 1, ptr %8) #9
  store i8 0, ptr %8, align 1
  %9 = load i16, ptr getelementptr inbounds nuw (%struct.salloc_opt_t, ptr @saopt, i32 0, i32 3), align 2
  %10 = zext i16 %9 to i32
  %11 = icmp eq i32 %10, 65534
  br i1 %11, label %12, label %13

12:                                               ; preds = %1
  store i16 0, ptr getelementptr inbounds nuw (%struct.salloc_opt_t, ptr @saopt, i32 0, i32 3), align 2
  br label %13

13:                                               ; preds = %12, %1
  br label %14

14:                                               ; preds = %118, %92, %13
  br label %15

15:                                               ; preds = %14
  %16 = load i32, ptr %6, align 4
  %17 = icmp ne i32 %16, 0
  br i1 %17, label %18, label %69

18:                                               ; preds = %15
  %19 = load double, ptr %3, align 8
  %20 = fcmp oeq double %19, 0.000000e+00
  br i1 %20, label %21, label %22

21:                                               ; preds = %18
  store double 1.000000e-01, ptr %4, align 8
  br label %30

22:                                               ; preds = %18
  %23 = load double, ptr %4, align 8
  %24 = fcmp olt double %23, 3.000000e+02
  br i1 %24, label %25, label %29

25:                                               ; preds = %22
  %26 = load i32, ptr %6, align 4
  %27 = sitofp i32 %26 to double
  %28 = fmul double 5.000000e-01, %27
  store double %28, ptr %4, align 8
  br label %29

29:                                               ; preds = %25, %22
  br label %30

30:                                               ; preds = %29, %21
  %31 = load i32, ptr %6, align 4
  %32 = icmp eq i32 %31, 2
  br i1 %32, label %33, label %44

33:                                               ; preds = %30
  br label %34

34:                                               ; preds = %33
  br label %35

35:                                               ; preds = %34
  %36 = call i32 @get_log_level()
  %37 = icmp sge i32 %36, 3
  br i1 %37, label %38, label %39

38:                                               ; preds = %35
  call void (i32, ptr, ...) @log_var(i32 noundef 3, ptr noundef @.str.39)
  br label %39

39:                                               ; preds = %38, %35
  br label %40

40:                                               ; preds = %39
  br label %41

41:                                               ; preds = %40
  br label %42

42:                                               ; preds = %41
  br label %43

43:                                               ; preds = %42
  br label %61

44:                                               ; preds = %30
  %45 = load i32, ptr %6, align 4
  %46 = icmp sgt i32 %45, 2
  br i1 %46, label %47, label %60

47:                                               ; preds = %44
  br label %48

48:                                               ; preds = %47
  br label %49

49:                                               ; preds = %48
  %50 = call i32 @get_log_level()
  %51 = icmp sge i32 %50, 5
  br i1 %51, label %52, label %55

52:                                               ; preds = %49
  %53 = load double, ptr %3, align 8
  %54 = load double, ptr %4, align 8
  call void (i32, ptr, ...) @log_var(i32 noundef 5, ptr noundef @.str.40, double noundef %53, double noundef %54)
  br label %55

55:                                               ; preds = %52, %49
  br label %56

56:                                               ; preds = %55
  br label %57

57:                                               ; preds = %56
  br label %58

58:                                               ; preds = %57
  br label %59

59:                                               ; preds = %58
  br label %60

60:                                               ; preds = %59, %44
  br label %61

61:                                               ; preds = %60, %43
  %62 = load double, ptr %4, align 8
  %63 = fmul double 1.000000e+06, %62
  %64 = fptoui double %63 to i32
  %65 = call i32 @usleep(i32 noundef %64)
  %66 = load double, ptr %4, align 8
  %67 = load double, ptr %3, align 8
  %68 = fadd double %67, %66
  store double %68, ptr %3, align 8
  br label %69

69:                                               ; preds = %61, %15
  %70 = load i32, ptr %6, align 4
  %71 = add nsw i32 %70, 1
  store i32 %71, ptr %6, align 4
  %72 = load ptr, ptr %2, align 8
  %73 = getelementptr inbounds nuw %struct.resource_allocation_response_msg, ptr %72, i32 0, i32 1
  %74 = load i32, ptr %73, align 8
  %75 = call i32 @slurm_job_node_ready(i32 noundef %74)
  store i32 %75, ptr %7, align 4
  %76 = load i32, ptr %7, align 4
  %77 = icmp eq i32 %76, -2
  br i1 %77, label %78, label %79

78:                                               ; preds = %69
  br label %119

79:                                               ; preds = %69
  %80 = load i8, ptr @allocation_interrupted, align 1, !range !8, !noundef !9
  %81 = trunc i8 %80 to i1
  br i1 %81, label %85, label %82

82:                                               ; preds = %79
  %83 = load i8, ptr @allocation_revoked, align 1, !range !8, !noundef !9
  %84 = trunc i8 %83 to i1
  br i1 %84, label %85, label %86

85:                                               ; preds = %82, %79
  br label %119

86:                                               ; preds = %82
  %87 = load i32, ptr %7, align 4
  %88 = icmp eq i32 %87, -1
  br i1 %88, label %92, label %89

89:                                               ; preds = %86
  %90 = load i32, ptr %7, align 4
  %91 = icmp eq i32 %90, 11
  br i1 %91, label %92, label %93

92:                                               ; preds = %89, %86
  br label %14, !llvm.loop !21

93:                                               ; preds = %89
  %94 = load i32, ptr %7, align 4
  %95 = sext i32 %94 to i64
  %96 = and i64 %95, 2
  %97 = icmp eq i64 %96, 0
  br i1 %97, label %98, label %99

98:                                               ; preds = %93
  store i8 1, ptr %8, align 1
  br label %119

99:                                               ; preds = %93
  %100 = load i32, ptr %7, align 4
  %101 = sext i32 %100 to i64
  %102 = and i64 %101, 2
  %103 = icmp ne i64 %102, 0
  br i1 %103, label %104, label %118

104:                                              ; preds = %99
  %105 = load i32, ptr %7, align 4
  %106 = sext i32 %105 to i64
  %107 = and i64 %106, 4
  %108 = icmp ne i64 %107, 0
  br i1 %108, label %109, label %118

109:                                              ; preds = %104
  %110 = load i32, ptr %7, align 4
  %111 = sext i32 %110 to i64
  %112 = and i64 %111, 1
  %113 = icmp ne i64 %112, 0
  br i1 %113, label %117, label %114

114:                                              ; preds = %109
  %115 = load i16, ptr getelementptr inbounds nuw (%struct.salloc_opt_t, ptr @saopt, i32 0, i32 3), align 2
  %116 = icmp ne i16 %115, 0
  br i1 %116, label %118, label %117

117:                                              ; preds = %114, %109
  store i32 1, ptr %5, align 4
  br label %119

118:                                              ; preds = %114, %104, %99
  br label %14, !llvm.loop !21

119:                                              ; preds = %117, %98, %85, %78
  %120 = load i32, ptr %5, align 4
  %121 = icmp ne i32 %120, 0
  br i1 %121, label %122, label %136

122:                                              ; preds = %119
  br label %123

123:                                              ; preds = %122
  br label %124

124:                                              ; preds = %123
  %125 = call i32 @get_log_level()
  %126 = icmp sge i32 %125, 3
  br i1 %126, label %127, label %131

127:                                              ; preds = %124
  %128 = load ptr, ptr %2, align 8
  %129 = getelementptr inbounds nuw %struct.resource_allocation_response_msg, ptr %128, i32 0, i32 15
  %130 = load ptr, ptr %129, align 8
  call void (i32, ptr, ...) @log_var(i32 noundef 3, ptr noundef @.str.41, ptr noundef %130)
  br label %131

131:                                              ; preds = %127, %124
  br label %132

132:                                              ; preds = %131
  br label %133

133:                                              ; preds = %132
  br label %134

134:                                              ; preds = %133
  br label %135

135:                                              ; preds = %134
  br label %158

136:                                              ; preds = %119
  %137 = load i8, ptr @allocation_interrupted, align 1, !range !8, !noundef !9
  %138 = trunc i8 %137 to i1
  br i1 %138, label %156, label %139

139:                                              ; preds = %136
  %140 = load i8, ptr %8, align 1, !range !8, !noundef !9
  %141 = trunc i8 %140 to i1
  br i1 %141, label %145, label %142

142:                                              ; preds = %139
  %143 = load i8, ptr @allocation_revoked, align 1, !range !8, !noundef !9
  %144 = trunc i8 %143 to i1
  br i1 %144, label %145, label %150

145:                                              ; preds = %142, %139
  %146 = load ptr, ptr %2, align 8
  %147 = getelementptr inbounds nuw %struct.resource_allocation_response_msg, ptr %146, i32 0, i32 1
  %148 = load i32, ptr %147, align 8
  %149 = call i32 (ptr, ...) @error(ptr noundef @.str.42, i32 noundef %148)
  store i8 1, ptr @allocation_interrupted, align 1
  br label %155

150:                                              ; preds = %142
  %151 = load ptr, ptr %2, align 8
  %152 = getelementptr inbounds nuw %struct.resource_allocation_response_msg, ptr %151, i32 0, i32 15
  %153 = load ptr, ptr %152, align 8
  %154 = call i32 (ptr, ...) @error(ptr noundef @.str.43, ptr noundef %153)
  br label %155

155:                                              ; preds = %150, %145
  br label %157

156:                                              ; preds = %136
  store i32 0, ptr %5, align 4
  br label %157

157:                                              ; preds = %156, %155
  br label %158

158:                                              ; preds = %157, %135
  %159 = load i32, ptr %5, align 4
  call void @llvm.lifetime.end.p0(i64 1, ptr %8) #9
  call void @llvm.lifetime.end.p0(i64 4, ptr %7) #9
  call void @llvm.lifetime.end.p0(i64 4, ptr %6) #9
  call void @llvm.lifetime.end.p0(i64 4, ptr %5) #9
  call void @llvm.lifetime.end.p0(i64 8, ptr %4) #9
  call void @llvm.lifetime.end.p0(i64 8, ptr %3) #9
  ret i32 %159
}

; Function Attrs: nounwind uwtable
define internal i32 @_proc_alloc(ptr noundef %0) #0 {
  %2 = alloca i32, align 4
  %3 = alloca ptr, align 8
  store ptr %0, ptr %3, align 8
  %4 = load i32, ptr @_proc_alloc.elem, align 4
  %5 = add nsw i32 %4, 1
  store i32 %5, ptr @_proc_alloc.elem, align 4
  %6 = icmp eq i32 %4, 0
  br i1 %6, label %7, label %50

7:                                                ; preds = %1
  %8 = load ptr, ptr %3, align 8
  %9 = getelementptr inbounds nuw %struct.resource_allocation_response_msg, ptr %8, i32 0, i32 29
  %10 = load ptr, ptr %9, align 8
  %11 = icmp ne ptr %10, null
  br i1 %11, label %12, label %50

12:                                               ; preds = %7
  %13 = load ptr, ptr %3, align 8
  call void @slurm_setup_remote_working_cluster(ptr noundef %13)
  %14 = load ptr, ptr @working_cluster_rec, align 8
  %15 = getelementptr inbounds nuw %struct.slurmdb_cluster_rec, ptr %14, i32 0, i32 4
  %16 = load ptr, ptr %15, align 8
  %17 = call ptr @xstrstr(ptr noundef %16, ptr noundef @.str.5)
  %18 = icmp ne ptr %17, null
  br i1 %18, label %19, label %34

19:                                               ; preds = %12
  %20 = load ptr, ptr @working_cluster_rec, align 8
  %21 = getelementptr inbounds nuw %struct.slurmdb_cluster_rec, ptr %20, i32 0, i32 12
  %22 = load ptr, ptr %21, align 8
  %23 = load ptr, ptr @working_cluster_rec, align 8
  %24 = getelementptr inbounds nuw %struct.slurmdb_cluster_rec, ptr %23, i32 0, i32 4
  %25 = load ptr, ptr %24, align 8
  %26 = load ptr, ptr @working_cluster_rec, align 8
  %27 = getelementptr inbounds nuw %struct.slurmdb_cluster_rec, ptr %26, i32 0, i32 5
  %28 = load i32, ptr %27, align 8
  %29 = load ptr, ptr @working_cluster_rec, align 8
  %30 = getelementptr inbounds nuw %struct.slurmdb_cluster_rec, ptr %29, i32 0, i32 15
  %31 = load i16, ptr %30, align 8
  %32 = zext i16 %31 to i32
  %33 = call i32 (ptr, ptr, ptr, ...) @setenvf(ptr noundef null, ptr noundef @.str.35, ptr noundef @.str.36, ptr noundef %22, ptr noundef %25, i32 noundef %28, i32 noundef %32)
  br label %49

34:                                               ; preds = %12
  %35 = load ptr, ptr @working_cluster_rec, align 8
  %36 = getelementptr inbounds nuw %struct.slurmdb_cluster_rec, ptr %35, i32 0, i32 12
  %37 = load ptr, ptr %36, align 8
  %38 = load ptr, ptr @working_cluster_rec, align 8
  %39 = getelementptr inbounds nuw %struct.slurmdb_cluster_rec, ptr %38, i32 0, i32 4
  %40 = load ptr, ptr %39, align 8
  %41 = load ptr, ptr @working_cluster_rec, align 8
  %42 = getelementptr inbounds nuw %struct.slurmdb_cluster_rec, ptr %41, i32 0, i32 5
  %43 = load i32, ptr %42, align 8
  %44 = load ptr, ptr @working_cluster_rec, align 8
  %45 = getelementptr inbounds nuw %struct.slurmdb_cluster_rec, ptr %44, i32 0, i32 15
  %46 = load i16, ptr %45, align 8
  %47 = zext i16 %46 to i32
  %48 = call i32 (ptr, ptr, ptr, ...) @setenvf(ptr noundef null, ptr noundef @.str.35, ptr noundef @.str.37, ptr noundef %37, ptr noundef %40, i32 noundef %43, i32 noundef %47)
  br label %49

49:                                               ; preds = %34, %19
  br label %50

50:                                               ; preds = %49, %7, %1
  %51 = load ptr, ptr %3, align 8
  %52 = call i32 @_wait_nodes_ready(ptr noundef %51)
  %53 = icmp ne i32 %52, 0
  br i1 %53, label %60, label %54

54:                                               ; preds = %50
  %55 = load i8, ptr @allocation_interrupted, align 1, !range !8, !noundef !9
  %56 = trunc i8 %55 to i1
  br i1 %56, label %59, label %57

57:                                               ; preds = %54
  %58 = call i32 (ptr, ...) @error(ptr noundef @.str.38)
  br label %59

59:                                               ; preds = %57, %54
  store i32 -1, ptr %2, align 4
  br label %61

60:                                               ; preds = %50
  store i32 0, ptr %2, align 4
  br label %61

61:                                               ; preds = %60, %59
  %62 = load i32, ptr %2, align 4
  ret i32 %62
}