; Function Attrs: nounwind uwtable
define internal fastcc range(i32 -1, 1) i32 @_proc_alloc(ptr noundef %0) unnamed_addr #0 {
  %2 = load i32, ptr @_proc_alloc.elem, align 4
  %3 = add nsw i32 %2, 1
  store i32 %3, ptr @_proc_alloc.elem, align 4
  %4 = icmp eq i32 %2, 0
  br i1 %4, label %5, label %23

5:                                                ; preds = %1
  %6 = getelementptr inbounds nuw i8, ptr %0, i64 192
  %7 = load ptr, ptr %6, align 8
  %.not = icmp eq ptr %7, null
  br i1 %.not, label %23, label %.sink.split

.sink.split:                                      ; preds = %5
  tail call void @slurm_setup_remote_working_cluster(ptr noundef nonnull %0) #13
  %8 = load ptr, ptr @working_cluster_rec, align 8
  %9 = getelementptr inbounds nuw i8, ptr %8, i64 152
  %10 = load ptr, ptr %9, align 8
  %11 = tail call ptr @xstrstr(ptr noundef %10, ptr noundef nonnull @.str.5) #13
  %.not3 = icmp eq ptr %11, null
  %12 = load ptr, ptr @working_cluster_rec, align 8
  %13 = getelementptr inbounds nuw i8, ptr %12, i64 280
  %14 = load ptr, ptr %13, align 8
  %15 = getelementptr inbounds nuw i8, ptr %12, i64 152
  %16 = load ptr, ptr %15, align 8
  %17 = getelementptr inbounds nuw i8, ptr %12, i64 160
  %18 = load i32, ptr %17, align 8
  %19 = getelementptr inbounds nuw i8, ptr %12, i64 304
  %20 = load i16, ptr %19, align 8
  %21 = zext i16 %20 to i32
  %.str.37..str.36 = select i1 %.not3, ptr @.str.37, ptr @.str.36
  %22 = tail call i32 (ptr, ptr, ptr, ...) @setenvf(ptr noundef null, ptr noundef nonnull @.str.35, ptr noundef nonnull %.str.37..str.36, ptr noundef %14, ptr noundef %16, i32 noundef %18, i32 noundef %21) #13
  br label %23

23:                                               ; preds = %.sink.split, %5, %1
  %24 = load i16, ptr getelementptr inbounds nuw (i8, ptr @saopt, i64 10), align 2
  %25 = icmp eq i16 %24, -2
  br i1 %25, label %26, label %27

26:                                               ; preds = %23
  store i16 0, ptr getelementptr inbounds nuw (i8, ptr @saopt, i64 10), align 2
  br label %27

27:                                               ; preds = %26, %23
  %28 = getelementptr inbounds nuw i8, ptr %0, i64 8
  br label %.backedge.i

.backedge.i:                                      ; preds = %.backedge.i.backedge, %27
  %.032.i = phi double [ 0.000000e+00, %27 ], [ %.133.i, %.backedge.i.backedge ]
  %.029.i = phi i32 [ 0, %27 ], [ %54, %.backedge.i.backedge ]
  %.028.i = phi double [ 0.000000e+00, %27 ], [ %.1.i, %.backedge.i.backedge ]
  %.not.i = icmp eq i32 %.029.i, 0
  br i1 %.not.i, label %53, label %29

29:                                               ; preds = %.backedge.i
  %30 = fcmp oeq double %.028.i, 0.000000e+00
  br i1 %30, label %36, label %31

31:                                               ; preds = %29
  %32 = fcmp olt double %.032.i, 3.000000e+02
  br i1 %32, label %33, label %36

33:                                               ; preds = %31
  %34 = uitofp nneg i32 %.029.i to double
  %35 = fmul double %34, 5.000000e-01
  br label %36

36:                                               ; preds = %33, %31, %29
  %.2.i = phi double [ %35, %33 ], [ %.032.i, %31 ], [ 1.000000e-01, %29 ]
  %37 = icmp eq i32 %.029.i, 2
  br i1 %37, label %38, label %42

38:                                               ; preds = %36
  %39 = tail call i32 @get_log_level() #13
  %40 = icmp sgt i32 %39, 2
  br i1 %40, label %41, label %48

41:                                               ; preds = %38
  tail call void (i32, ptr, ...) @log_var(i32 noundef 3, ptr noundef nonnull @.str.39) #13
  br label %48

42:                                               ; preds = %36
  %43 = icmp samesign ugt i32 %.029.i, 2
  br i1 %43, label %44, label %48

44:                                               ; preds = %42
  %45 = tail call i32 @get_log_level() #13
  %46 = icmp sgt i32 %45, 4
  br i1 %46, label %47, label %48

47:                                               ; preds = %44
  tail call void (i32, ptr, ...) @log_var(i32 noundef 5, ptr noundef nonnull @.str.40, double noundef %.028.i, double noundef %.2.i) #13
  br label %48

48:                                               ; preds = %47, %44, %42, %41, %38
  %49 = fmul double %.2.i, 1.000000e+06
  %50 = fptoui double %49 to i32
  %51 = tail call i32 @usleep(i32 noundef %50) #13
  %52 = fadd double %.028.i, %.2.i
  br label %53

53:                                               ; preds = %48, %.backedge.i
  %.133.i = phi double [ %.2.i, %48 ], [ %.032.i, %.backedge.i ]
  %.1.i = phi double [ %52, %48 ], [ %.028.i, %.backedge.i ]
  %54 = add nuw nsw i32 %.029.i, 1
  %55 = load i32, ptr %28, align 8
  %56 = tail call i32 @slurm_job_node_ready(i32 noundef %55) #13
  %.not59.i = icmp eq i32 %56, -2
  %.b42.pr.pre.i = load i1, ptr @allocation_interrupted, align 1
  br i1 %.not59.i, label %76, label %57

57:                                               ; preds = %53
  br i1 %.b42.pr.pre.i, label %_wait_nodes_ready.exit, label %58

58:                                               ; preds = %57
  %.b3739.i = load i1, ptr @allocation_revoked, align 1
  br i1 %.b3739.i, label %.thread57.i, label %59

59:                                               ; preds = %58
  switch i32 %56, label %60 [
    i32 -1, label %.backedge.i.backedge
    i32 11, label %.backedge.i.backedge
  ]

60:                                               ; preds = %59
  %61 = and i32 %56, 2
  %62 = icmp eq i32 %61, 0
  br i1 %62, label %.thread57.i, label %63

63:                                               ; preds = %60
  %64 = and i32 %56, 4
  %.not40.i = icmp eq i32 %64, 0
  br i1 %.not40.i, label %.backedge.i.backedge, label %65

65:                                               ; preds = %63
  %66 = and i32 %56, 1
  %67 = icmp eq i32 %66, 0
  %68 = load i16, ptr getelementptr inbounds nuw (i8, ptr @saopt, i64 10), align 2
  %69 = icmp ne i16 %68, 0
  %or.cond3.i = select i1 %67, i1 %69, i1 false
  br i1 %or.cond3.i, label %.backedge.i.backedge, label %70

.backedge.i.backedge:                             ; preds = %65, %63, %59, %59
  br label %.backedge.i, !llvm.loop !21

70:                                               ; preds = %65
  %71 = tail call i32 @get_log_level() #13
  %72 = icmp sgt i32 %71, 2
  br i1 %72, label %73, label %_wait_nodes_ready.exit

73:                                               ; preds = %70
  %74 = getelementptr inbounds nuw i8, ptr %0, i64 104
  %75 = load ptr, ptr %74, align 8
  tail call void (i32, ptr, ...) @log_var(i32 noundef 3, ptr noundef nonnull @.str.41, ptr noundef %75) #13
  br label %_wait_nodes_ready.exit

76:                                               ; preds = %53
  br i1 %.b42.pr.pre.i, label %_wait_nodes_ready.exit, label %77

77:                                               ; preds = %76
  %.b3643.pr.i = load i1, ptr @allocation_revoked, align 1
  br i1 %.b3643.pr.i, label %.thread57.i, label %80

.thread57.i:                                      ; preds = %60, %58, %77
  %78 = load i32, ptr %28, align 8
  %79 = tail call i32 (ptr, ...) @error(ptr noundef nonnull @.str.42, i32 noundef %78) #13
  store i1 true, ptr @allocation_interrupted, align 1
  br label %_wait_nodes_ready.exit

80:                                               ; preds = %77
  %81 = getelementptr inbounds nuw i8, ptr %0, i64 104
  %82 = load ptr, ptr %81, align 8
  %83 = tail call i32 (ptr, ...) @error(ptr noundef nonnull @.str.43, ptr noundef %82) #13
  %.b5.pr = load i1, ptr @allocation_interrupted, align 1
  br i1 %.b5.pr, label %_wait_nodes_ready.exit, label %84

84:                                               ; preds = %80
  %85 = tail call i32 (ptr, ...) @error(ptr noundef nonnull @.str.38) #13
  br label %_wait_nodes_ready.exit

_wait_nodes_ready.exit:                           ; preds = %57, %76, %.thread57.i, %73, %70, %80, %84
  %.0 = phi i32 [ -1, %84 ], [ -1, %80 ], [ 0, %70 ], [ 0, %73 ], [ -1, %.thread57.i ], [ -1, %76 ], [ -1, %57 ]
  ret i32 %.0
}